target datalayout = "e-m:e-p270:32:32-p271:32:32-p272:64:64-i64:64-i128:128-f80:128-n8:16:32:64-S128"
target triple = "x86_64-pc-linux-gnu"

%"struct.std::atomic.72" = type { %"struct.std::__atomic_base.73" }
%"struct.std::__atomic_base.73" = type { i8 }
%class.z3_log_ctx = type { i8 }

@_ZTI12z3_exception = external constant ptr
@g_z3_log_enabled = external global %"struct.std::atomic.72", align 1

; Function Attrs: mustprogress nounwind uwtable
define linkonce_odr noundef i32 @_ZStanSt12memory_orderSt23__memory_order_modifier(i32 noundef %0, i32 noundef %1) #6 comdat {
  %3 = alloca i32, align 4
  %4 = alloca i32, align 4
  store i32 %0, ptr %3, align 4, !tbaa !218
  store i32 %1, ptr %4, align 4, !tbaa !239
  %5 = load i32, ptr %3, align 4, !tbaa !218
  %6 = load i32, ptr %4, align 4, !tbaa !239
  %7 = and i32 %5, %6
  ret i32 %7
}

; Function Attrs: alwaysinline mustprogress nounwind uwtable
define linkonce_odr hidden void @_ZNSt13__atomic_baseIbE5storeEbSt12memory_order(ptr noundef nonnull align 1 dereferenceable(1) %0, i1 noundef zeroext %1, i32 noundef %2) #12 comdat align 2 personality ptr @__gxx_personality_v0 {
  %4 = alloca ptr, align 8
  %5 = alloca i8, align 1
  %6 = alloca i32, align 4
  %7 = alloca i32, align 4
  %8 = alloca i8, align 1
  store ptr %0, ptr %4, align 8, !tbaa !220
  %9 = zext i1 %1 to i8
  store i8 %9, ptr %5, align 1, !tbaa !191
  store i32 %2, ptr %6, align 4, !tbaa !218
  %10 = load ptr, ptr %4, align 8
  call void @llvm.lifetime.start.p0(i64 4, ptr %7) #3
  %11 = load i32, ptr %6, align 4, !tbaa !218
  %12 = invoke noundef i32 @_ZStanSt12memory_orderSt23__memory_order_modifier(i32 noundef %11, i32 noundef 65535)
          to label %13 unwind label %35

13:                                               ; preds = %3
  store i32 %12, ptr %7, align 4, !tbaa !218
  br label %14

14:                                               ; preds = %13
  br label %15

15:                                               ; preds = %14
  br label %16

16:                                               ; preds = %15
  br label %17

17:                                               ; preds = %16
  br label %18

18:                                               ; preds = %17
  br label %19

19:                                               ; preds = %18
  br label %20

20:                                               ; preds = %19
  br label %21

21:                                               ; preds = %20
  br label %22

22:                                               ; preds = %21
  %23 = getelementptr inbounds nuw %"struct.std::__atomic_base.73", ptr %10, i32 0, i32 0
  %24 = load i32, ptr %6, align 4, !tbaa !218
  %25 = load i8, ptr %5, align 1, !tbaa !191, !range !19, !noundef !20
  %26 = trunc i8 %25 to i1
  %27 = zext i1 %26 to i8
  store i8 %27, ptr %8, align 1, !tbaa !191
  switch i32 %24, label %28 [
    i32 3, label %30
    i32 5, label %32
  ]

28:                                               ; preds = %22
  %29 = load i8, ptr %8, align 1
  store atomic i8 %29, ptr %23 monotonic, align 1
  br label %34

30:                                               ; preds = %22
  %31 = load i8, ptr %8, align 1
  store atomic i8 %31, ptr %23 release, align 1
  br label %34

32:                                               ; preds = %22
  %33 = load i8, ptr %8, align 1
  store atomic i8 %33, ptr %23 seq_cst, align 1
  br label %34

34:                                               ; preds = %32, %30, %28
  call void @llvm.lifetime.end.p0(i64 4, ptr %7) #3
  ret void

35:                                               ; preds = %3
  %36 = landingpad { ptr, i32 }
          catch ptr null
  %37 = extractvalue { ptr, i32 } %36, 0
  call void @__clang_call_terminate(ptr %37) #19
  unreachable
}

; Function Attrs: mustprogress nounwind uwtable
define linkonce_odr hidden noundef zeroext i1 @_ZNSt13__atomic_baseIbEaSEb(ptr noundef nonnull align 1 dereferenceable(1) %0, i1 noundef zeroext %1) #6 comdat align 2 {
  %3 = alloca ptr, align 8
  %4 = alloca i8, align 1
  store ptr %0, ptr %3, align 8, !tbaa !220
  %5 = zext i1 %1 to i8
  store i8 %5, ptr %4, align 1, !tbaa !191
  %6 = load ptr, ptr %3, align 8
  %7 = load i8, ptr %4, align 1, !tbaa !191, !range !19, !noundef !20
  %8 = trunc i8 %7 to i1
  call void @_ZNSt13__atomic_baseIbE5storeEbSt12memory_order(ptr noundef nonnull align 1 dereferenceable(1) %6, i1 noundef zeroext %8, i32 noundef 5) #3
  %9 = load i8, ptr %4, align 1, !tbaa !191, !range !19, !noundef !20
  %10 = trunc i8 %9 to i1
  ret i1 %10
}

; Function Attrs: alwaysinline mustprogress nounwind uwtable
define linkonce_odr hidden noundef zeroext i1 @_ZNSt13__atomic_baseIbE8exchangeEbSt12memory_order(ptr noundef nonnull align 1 dereferenceable(1) %0, i1 noundef zeroext %1, i32 noundef %2) #12 comdat align 2 {
  %4 = alloca ptr, align 8
  %5 = alloca i8, align 1
  %6 = alloca i32, align 4
  %7 = alloca i8, align 1
  %8 = alloca i8, align 1
  store ptr %0, ptr %4, align 8, !tbaa !220
  %9 = zext i1 %1 to i8
  store i8 %9, ptr %5, align 1, !tbaa !191
  store i32 %2, ptr %6, align 4, !tbaa !218
  %10 = load ptr, ptr %4, align 8
  %11 = getelementptr inbounds nuw %"struct.std::__atomic_base.73", ptr %10, i32 0, i32 0
  %12 = load i32, ptr %6, align 4, !tbaa !218
  %13 = load i8, ptr %5, align 1, !tbaa !191, !range !19, !noundef !20
  %14 = trunc i8 %13 to i1
  %15 = zext i1 %14 to i8
  store i8 %15, ptr %7, align 1, !tbaa !191
  switch i32 %12, label %16 [
    i32 1, label %19
    i32 2, label %19
    i32 3, label %22
    i32 4, label %25
    i32 5, label %28
  ]

16:                                               ; preds = %3
  %17 = load i8, ptr %7, align 1
  %18 = atomicrmw xchg ptr %11, i8 %17 monotonic, align 1
  store i8 %18, ptr %8, align 1
  br label %31

19:                                               ; preds = %3, %3
  %20 = load i8, ptr %7, align 1
  %21 = atomicrmw xchg ptr %11, i8 %20 acquire, align 1
  store i8 %21, ptr %8, align 1
  br label %31

22:                                               ; preds = %3
  %23 = load i8, ptr %7, align 1
  %24 = atomicrmw xchg ptr %11, i8 %23 release, align 1
  store i8 %24, ptr %8, align 1
  br label %31

25:                                               ; preds = %3
  %26 = load i8, ptr %7, align 1
  %27 = atomicrmw xchg ptr %11, i8 %26 acq_rel, align 1
  store i8 %27, ptr %8, align 1
  br label %31

28:                                               ; preds = %3
  %29 = load i8, ptr %7, align 1
  %30 = atomicrmw xchg ptr %11, i8 %29 seq_cst, align 1
  store i8 %30, ptr %8, align 1
  br label %31

31:                                               ; preds = %28, %25, %22, %19, %16
  %32 = load i8, ptr %8, align 1, !tbaa !191, !range !19, !noundef !20
  %33 = trunc i8 %32 to i1
  ret i1 %33
}

; Function Attrs: mustprogress nounwind uwtable
define linkonce_odr hidden noundef zeroext i1 @_ZNSt6atomicIbEaSEb(ptr noundef nonnull align 1 dereferenceable(1) %0, i1 noundef zeroext %1) #6 comdat align 2 {
  %3 = alloca ptr, align 8
  %4 = alloca i8, align 1
  store ptr %0, ptr %3, align 8, !tbaa !216
  %5 = zext i1 %1 to i8
  store i8 %5, ptr %4, align 1, !tbaa !191
  %6 = load ptr, ptr %3, align 8
  %7 = getelementptr inbounds nuw %"struct.std::atomic.72", ptr %6, i32 0, i32 0
  %8 = load i8, ptr %4, align 1, !tbaa !191, !range !19, !noundef !20
  %9 = trunc i8 %8 to i1
  %10 = call noundef zeroext i1 @_ZNSt13__atomic_baseIbEaSEb(ptr noundef nonnull align 1 dereferenceable(1) %7, i1 noundef zeroext %9) #3
  ret i1 %10
}

; Function Attrs: mustprogress nounwind uwtable
define linkonce_odr hidden noundef zeroext i1 @_ZNSt6atomicIbE8exchangeEbSt12memory_order(ptr noundef nonnull align 1 dereferenceable(1) %0, i1 noundef zeroext %1, i32 noundef %2) #6 comdat align 2 {
  %4 = alloca ptr, align 8
  %5 = alloca i8, align 1
  %6 = alloca i32, align 4
  store ptr %0, ptr %4, align 8, !tbaa !216
  %7 = zext i1 %1 to i8
  store i8 %7, ptr %5, align 1, !tbaa !191
  store i32 %2, ptr %6, align 4, !tbaa !218
  %8 = load ptr, ptr %4, align 8
  %9 = getelementptr inbounds nuw %"struct.std::atomic.72", ptr %8, i32 0, i32 0
  %10 = load i8, ptr %5, align 1, !tbaa !191, !range !19, !noundef !20
  %11 = trunc i8 %10 to i1
  %12 = load i32, ptr %6, align 4, !tbaa !218
  %13 = call noundef zeroext i1 @_ZNSt13__atomic_baseIbE8exchangeEbSt12memory_order(ptr noundef nonnull align 1 dereferenceable(1) %9, i1 noundef zeroext %11, i32 noundef %12) #3
  ret i1 %13
}

; Function Attrs: inlinehint mustprogress nounwind uwtable
define linkonce_odr hidden noundef ptr @_Z4mk_cP11_Z3_context(ptr noundef %0) #7 comdat {
  %2 = alloca ptr, align 8
  store ptr %0, ptr %2, align 8, !tbaa !3
  %3 = load ptr, ptr %2, align 8, !tbaa !3
  ret ptr %3
}

; Function Attrs: inlinehint mustprogress nounwind uwtable
define linkonce_odr hidden noundef ptr @_Z13to_ast_vectorP14_Z3_ast_vector(ptr noundef %0) #7 comdat {
  %2 = alloca ptr, align 8
  store ptr %0, ptr %2, align 8, !tbaa !10
  %3 = load ptr, ptr %2, align 8, !tbaa !10
  ret ptr %3
}

; Function Attrs: mustprogress nounwind uwtable
define linkonce_odr hidden void @_ZN10z3_log_ctxD2Ev(ptr noundef nonnull align 1 dereferenceable(1) %0) unnamed_addr #6 comdat align 2 {
  %2 = alloca ptr, align 8
  store ptr %0, ptr %2, align 8, !tbaa !14
  %3 = load ptr, ptr %2, align 8
  %4 = getelementptr inbounds nuw %class.z3_log_ctx, ptr %3, i32 0, i32 0
  %5 = load i8, ptr %4, align 1, !tbaa !16, !range !19, !noundef !20
  %6 = trunc i8 %5 to i1
  %7 = call i1 @llvm.expect.i1(i1 %6, i1 false)
  br i1 %7, label %8, label %10

8:                                                ; preds = %1
  %9 = call noundef zeroext i1 @_ZNSt6atomicIbEaSEb(ptr noundef nonnull align 1 dereferenceable(1) @g_z3_log_enabled, i1 noundef zeroext true) #3
  br label %10

10:                                               ; preds = %8, %1
  ret void
}

; Function Attrs: mustprogress nounwind uwtable
define linkonce_odr hidden noundef zeroext i1 @_ZNK10z3_log_ctx7enabledEv(ptr noundef nonnull align 1 dereferenceable(1) %0) #6 comdat align 2 {
  %2 = alloca ptr, align 8
  store ptr %0, ptr %2, align 8, !tbaa !14
  %3 = load ptr, ptr %2, align 8
  %4 = getelementptr inbounds nuw %class.z3_log_ctx, ptr %3, i32 0, i32 0
  %5 = load i8, ptr %4, align 1, !tbaa !16, !range !19, !noundef !20
  %6 = trunc i8 %5 to i1
  ret i1 %6
}

; Function Attrs: mustprogress nounwind uwtable
define linkonce_odr hidden void @_ZN10z3_log_ctxC2Ev(ptr noundef nonnull align 1 dereferenceable(1) %0) unnamed_addr #6 comdat align 2 {
  %2 = alloca ptr, align 8
  store ptr %0, ptr %2, align 8, !tbaa !14
  %3 = load ptr, ptr %2, align 8
  %4 = call noundef zeroext i1 @_ZNSt6atomicIbE8exchangeEbSt12memory_order(ptr noundef nonnull align 1 dereferenceable(1) @g_z3_log_enabled, i1 noundef zeroext false, i32 noundef 5) #3
  %5 = getelementptr inbounds nuw %class.z3_log_ctx, ptr %3, i32 0, i32 0
  %6 = zext i1 %4 to i8
  store i8 %6, ptr %5, align 1, !tbaa !16
  ret void
}

; Function Attrs: mustprogress uwtable
define void @Z3_ast_vector_dec_ref(ptr noundef %0, ptr noundef %1) #4 personality ptr @__gxx_personality_v0 {
  %3 = alloca ptr, align 8
  %4 = alloca ptr, align 8
  %5 = alloca %class.z3_log_ctx, align 1
  %6 = alloca ptr, align 8
  %7 = alloca i32, align 4
  %8 = alloca ptr, align 8
  store ptr %0, ptr %3, align 8, !tbaa !3
  store ptr %1, ptr %4, align 8, !tbaa !10
  call void @llvm.lifetime.start.p0(i64 1, ptr %5) #3
  invoke void @_ZN10z3_log_ctxC2Ev(ptr noundef nonnull align 1 dereferenceable(1) %5)
          to label %9 unwind label %16

9:                                                ; preds = %2
  %10 = invoke noundef zeroext i1 @_ZNK10z3_log_ctx7enabledEv(ptr noundef nonnull align 1 dereferenceable(1) %5)
          to label %11 unwind label %20

11:                                               ; preds = %9
  br i1 %10, label %12, label %24

12:                                               ; preds = %11
  %13 = load ptr, ptr %3, align 8, !tbaa !3
  %14 = load ptr, ptr %4, align 8, !tbaa !10
  invoke void @_Z25log_Z3_ast_vector_dec_refP11_Z3_contextP14_Z3_ast_vector(ptr noundef %13, ptr noundef %14)
          to label %15 unwind label %20

15:                                               ; preds = %12
  br label %24

16:                                               ; preds = %2
  %17 = landingpad { ptr, i32 }
          cleanup
          catch ptr @_ZTI12z3_exception
  %18 = extractvalue { ptr, i32 } %17, 0
  store ptr %18, ptr %6, align 8
  %19 = extractvalue { ptr, i32 } %17, 1
  store i32 %19, ptr %7, align 4
  br label %33

20:                                               ; preds = %30, %27, %12, %9
  %21 = landingpad { ptr, i32 }
          cleanup
          catch ptr @_ZTI12z3_exception
  %22 = extractvalue { ptr, i32 } %21, 0
  store ptr %22, ptr %6, align 8
  %23 = extractvalue { ptr, i32 } %21, 1
  store i32 %23, ptr %7, align 4
  call void @_ZN10z3_log_ctxD2Ev(ptr noundef nonnull align 1 dereferenceable(1) %5) #3
  br label %33

24:                                               ; preds = %15, %11
  %25 = load ptr, ptr %4, align 8, !tbaa !10
  %26 = icmp ne ptr %25, null
  br i1 %26, label %27, label %32

27:                                               ; preds = %24
  %28 = load ptr, ptr %4, align 8, !tbaa !10
  %29 = invoke noundef ptr @_Z13to_ast_vectorP14_Z3_ast_vector(ptr noundef %28)
          to label %30 unwind label %20

30:                                               ; preds = %27
  invoke void @_ZN3api6object7dec_refEv(ptr noundef nonnull align 8 dereferenceable(24) %29)
          to label %31 unwind label %20

31:                                               ; preds = %30
  br label %32

32:                                               ; preds = %31, %24
  call void @_ZN10z3_log_ctxD2Ev(ptr noundef nonnull align 1 dereferenceable(1) %5) #3
  call void @llvm.lifetime.end.p0(i64 1, ptr %5) #3
  br label %51

33:                                               ; preds = %20, %16
  call void @llvm.lifetime.end.p0(i64 1, ptr %5) #3
  br label %34

34:                                               ; preds = %33
  %35 = load i32, ptr %7, align 4
  %36 = call i32 @llvm.eh.typeid.for.p0(ptr @_ZTI12z3_exception) #3
  %37 = icmp eq i32 %35, %36
  br i1 %37, label %38, label %52

38:                                               ; preds = %34
  call void @llvm.lifetime.start.p0(i64 8, ptr %8) #3
  %39 = load ptr, ptr %6, align 8
  %40 = call ptr @__cxa_begin_catch(ptr %39) #3
  store ptr %40, ptr %8, align 8
  %41 = load ptr, ptr %3, align 8, !tbaa !3
  %42 = invoke noundef ptr @_Z4mk_cP11_Z3_context(ptr noundef %41)
          to label %43 unwind label %46

43:                                               ; preds = %38
  %44 = load ptr, ptr %8, align 8, !tbaa !12
  invoke void @_ZN3api7context16handle_exceptionER12z3_exception(ptr noundef nonnull align 8 dereferenceable(3056) %42, ptr noundef nonnull align 8 dereferenceable(8) %44)
          to label %45 unwind label %46

45:                                               ; preds = %43
  call void @__cxa_end_catch()
  call void @llvm.lifetime.end.p0(i64 8, ptr %8) #3
  br label %51

46:                                               ; preds = %43, %38
  %47 = landingpad { ptr, i32 }
          cleanup
  %48 = extractvalue { ptr, i32 } %47, 0
  store ptr %48, ptr %6, align 8
  %49 = extractvalue { ptr, i32 } %47, 1
  store i32 %49, ptr %7, align 4
  invoke void @__cxa_end_catch()
          to label %50 unwind label %57

50:                                               ; preds = %46
  call void @llvm.lifetime.end.p0(i64 8, ptr %8) #3
  br label %52

51:                                               ; preds = %45, %32
  ret void

52:                                               ; preds = %50, %34
  %53 = load ptr, ptr %6, align 8
  %54 = load i32, ptr %7, align 4
  %55 = insertvalue { ptr, i32 } poison, ptr %53, 0
  %56 = insertvalue { ptr, i32 } %55, i32 %54, 1
  resume { ptr, i32 } %56

57:                                               ; preds = %46
  %58 = landingpad { ptr, i32 }
          catch ptr null
  %59 = extractvalue { ptr, i32 } %58, 0
  call void @__clang_call_terminate(ptr %59) #19
  unreachable
}